target datalayout = "e-m:e-p270:32:32-p271:32:32-p272:64:64-i64:64-i128:128-f80:128-n8:16:32:64-S128"
target triple = "x86_64-pc-linux-gnu"

%struct.RArray = type { %struct.RBasic, %union.anon }
%struct.RBasic = type { i64, i64 }
%union.anon = type { %struct.anon }
%struct.anon = type { i64, %union.anon.0, ptr }
%union.anon.0 = type { i64 }
%struct.chunk_arg = type { i64, i64, i64, i64 }

@id_chunk_categorize = internal global i64 0, align 8
@id_chunk_enumerable = internal global i64 0, align 8
@.str.78 = private unnamed_addr constant [39 x i8] c"../include/ruby/internal/core/rarray.h\00", align 1

; Function Attrs: inlinehint nounwind sspstrong willreturn memory(read) uwtable
define internal i64 @RB_FL_TEST_RAW(i64 noundef %0, i64 noundef %1) #5 {
  %3 = alloca i64, align 8
  %4 = alloca i64, align 8
  store i64 %0, ptr %3, align 8, !tbaa !14
  store i64 %1, ptr %4, align 8, !tbaa !14
  %5 = load i64, ptr %3, align 8, !tbaa !14
  %6 = inttoptr i64 %5 to ptr
  %7 = getelementptr inbounds nuw %struct.RBasic, ptr %6, i32 0, i32 0
  %8 = load i64, ptr %7, align 8, !tbaa !88
  %9 = load i64, ptr %4, align 8, !tbaa !14
  %10 = and i64 %8, %9
  ret i64 %10
}

; Function Attrs: inlinehint nounwind sspstrong willreturn memory(read) uwtable
define internal zeroext i1 @RB_FL_ANY_RAW(i64 noundef %0, i64 noundef %1) #5 {
  %3 = alloca i64, align 8
  %4 = alloca i64, align 8
  store i64 %0, ptr %3, align 8, !tbaa !14
  store i64 %1, ptr %4, align 8, !tbaa !14
  %5 = load i64, ptr %3, align 8, !tbaa !14
  %6 = load i64, ptr %4, align 8, !tbaa !14
  %7 = call i64 @RB_FL_TEST_RAW(i64 noundef %5, i64 noundef %6) #24
  %8 = icmp ne i64 %7, 0
  ret i1 %8
}

; Function Attrs: inlinehint nounwind sspstrong willreturn memory(read) uwtable
define internal ptr @rb_array_const_ptr(i64 noundef %0) #5 {
  %2 = alloca ptr, align 8
  %3 = alloca i64, align 8
  store i64 %0, ptr %3, align 8, !tbaa !14
  %4 = load i64, ptr %3, align 8, !tbaa !14
  %5 = call zeroext i1 @RB_FL_ANY_RAW(i64 noundef %4, i64 noundef 8192) #24
  br i1 %5, label %6, label %11

6:                                                ; preds = %1
  %7 = load i64, ptr %3, align 8, !tbaa !14
  %8 = inttoptr i64 %7 to ptr
  %9 = getelementptr inbounds nuw %struct.RArray, ptr %8, i32 0, i32 1
  %10 = getelementptr inbounds [1 x i64], ptr %9, i64 0, i64 0
  store ptr %10, ptr %2, align 8
  br label %17

11:                                               ; preds = %1
  %12 = load i64, ptr %3, align 8, !tbaa !14
  %13 = inttoptr i64 %12 to ptr
  %14 = getelementptr inbounds nuw %struct.RArray, ptr %13, i32 0, i32 1
  %15 = getelementptr inbounds nuw %struct.anon, ptr %14, i32 0, i32 2
  %16 = load ptr, ptr %15, align 8, !tbaa !31
  store ptr %16, ptr %2, align 8
  br label %17

17:                                               ; preds = %11, %6
  %18 = load ptr, ptr %2, align 8
  ret ptr %18
}

; Function Attrs: inlinehint nounwind sspstrong uwtable
define internal i64 @rb_obj_wb_unprotect(i64 noundef %0, ptr noundef %1, i32 noundef %2) #3 {
  %4 = alloca i64, align 8
  %5 = alloca ptr, align 8
  %6 = alloca i32, align 4
  store i64 %0, ptr %4, align 8, !tbaa !14
  store ptr %1, ptr %5, align 8, !tbaa !86
  store i32 %2, ptr %6, align 4, !tbaa !7
  %7 = load i64, ptr %4, align 8, !tbaa !14
  call void @rb_gc_writebarrier_unprotect(i64 noundef %7)
  %8 = load i64, ptr %4, align 8, !tbaa !14
  ret i64 %8
}

; Function Attrs: inlinehint nounwind sspstrong willreturn memory(none) uwtable
define internal zeroext i1 @RB_NIL_P(i64 noundef %0) #6 {
  %2 = alloca i64, align 8
  store i64 %0, ptr %2, align 8, !tbaa !14
  %3 = load i64, ptr %2, align 8, !tbaa !14
  %4 = icmp eq i64 %3, 4
  ret i1 %4
}

; Function Attrs: inlinehint nounwind sspstrong uwtable
define internal ptr @RARRAY_PTR(i64 noundef %0) #3 {
  %2 = alloca i64, align 8
  %3 = alloca i64, align 8
  store i64 %0, ptr %2, align 8, !tbaa !14
  call void @llvm.lifetime.start.p0(i64 8, ptr %3) #22
  %4 = load i64, ptr %2, align 8, !tbaa !14
  %5 = call i64 @rb_obj_wb_unprotect(i64 noundef %4, ptr noundef @.str.78, i32 noundef 370)
  store i64 %5, ptr %3, align 8, !tbaa !14
  %6 = load i64, ptr %3, align 8, !tbaa !14
  %7 = call ptr @rb_array_const_ptr(i64 noundef %6) #24
  call void @llvm.lifetime.end.p0(i64 8, ptr %3) #22
  ret ptr %7
}

; Function Attrs: nounwind sspstrong uwtable
define internal i64 @chunk_i(i64 noundef %0, i64 noundef %1, i32 noundef %2, ptr noundef %3, i64 noundef %4) #0 {
  %6 = alloca i64, align 8
  %7 = alloca i64, align 8
  %8 = alloca i32, align 4
  %9 = alloca ptr, align 8
  %10 = alloca i64, align 8
  %11 = alloca i64, align 8
  %12 = alloca i64, align 8
  %13 = alloca ptr, align 8
  store i64 %0, ptr %6, align 8, !tbaa !14
  store i64 %1, ptr %7, align 8, !tbaa !14
  store i32 %2, ptr %8, align 4, !tbaa !7
  store ptr %3, ptr %9, align 8, !tbaa !11
  store i64 %4, ptr %10, align 8, !tbaa !14
  call void @llvm.lifetime.start.p0(i64 8, ptr %11) #22
  call void @llvm.lifetime.start.p0(i64 8, ptr %12) #22
  call void @llvm.lifetime.start.p0(i64 8, ptr %13) #22
  %14 = call i64 @rb_ary_hidden_new_fill(i64 noundef 4)
  store i64 %14, ptr %12, align 8, !tbaa !14
  %15 = load i64, ptr %12, align 8, !tbaa !14
  %16 = call ptr @RARRAY_PTR(i64 noundef %15)
  store ptr %16, ptr %13, align 8, !tbaa !130
  %17 = load i64, ptr %7, align 8, !tbaa !14
  %18 = load i64, ptr @id_chunk_enumerable, align 8, !tbaa !14
  %19 = call i64 @rb_ivar_get(i64 noundef %17, i64 noundef %18)
  store i64 %19, ptr %11, align 8, !tbaa !14
  %20 = load i64, ptr %7, align 8, !tbaa !14
  %21 = load i64, ptr @id_chunk_categorize, align 8, !tbaa !14
  %22 = call i64 @rb_ivar_get(i64 noundef %20, i64 noundef %21)
  %23 = load ptr, ptr %13, align 8, !tbaa !130
  %24 = getelementptr inbounds nuw %struct.chunk_arg, ptr %23, i32 0, i32 0
  store i64 %22, ptr %24, align 8, !tbaa !132
  %25 = load ptr, ptr %13, align 8, !tbaa !130
  %26 = getelementptr inbounds nuw %struct.chunk_arg, ptr %25, i32 0, i32 1
  store i64 4, ptr %26, align 8, !tbaa !134
  %27 = load ptr, ptr %13, align 8, !tbaa !130
  %28 = getelementptr inbounds nuw %struct.chunk_arg, ptr %27, i32 0, i32 2
  store i64 4, ptr %28, align 8, !tbaa !135
  %29 = load i64, ptr %6, align 8, !tbaa !14
  %30 = load ptr, ptr %13, align 8, !tbaa !130
  %31 = getelementptr inbounds nuw %struct.chunk_arg, ptr %30, i32 0, i32 3
  store i64 %29, ptr %31, align 8, !tbaa !136
  %32 = load i64, ptr %11, align 8, !tbaa !14
  %33 = load i64, ptr %12, align 8, !tbaa !14
  %34 = call i64 @rb_block_call(i64 noundef %32, i64 noundef 3073, i32 noundef 0, ptr noundef null, ptr noundef @chunk_ii, i64 noundef %33)
  %35 = load i64, ptr %12, align 8, !tbaa !14
  %36 = call ptr @RARRAY_PTR(i64 noundef %35)
  store ptr %36, ptr %13, align 8, !tbaa !130
  %37 = load ptr, ptr %13, align 8, !tbaa !130
  %38 = getelementptr inbounds nuw %struct.chunk_arg, ptr %37, i32 0, i32 2
  %39 = load i64, ptr %38, align 8, !tbaa !135
  %40 = call zeroext i1 @RB_NIL_P(i64 noundef %39) #25
  br i1 %40, label %53, label %41

41:                                               ; preds = %5
  %42 = load ptr, ptr %13, align 8, !tbaa !130
  %43 = getelementptr inbounds nuw %struct.chunk_arg, ptr %42, i32 0, i32 1
  %44 = load i64, ptr %43, align 8, !tbaa !134
  %45 = load ptr, ptr %13, align 8, !tbaa !130
  %46 = getelementptr inbounds nuw %struct.chunk_arg, ptr %45, i32 0, i32 2
  %47 = load i64, ptr %46, align 8, !tbaa !135
  %48 = call i64 @rb_assoc_new(i64 noundef %44, i64 noundef %47)
  store i64 %48, ptr %12, align 8, !tbaa !14
  %49 = load ptr, ptr %13, align 8, !tbaa !130
  %50 = getelementptr inbounds nuw %struct.chunk_arg, ptr %49, i32 0, i32 3
  %51 = load i64, ptr %50, align 8, !tbaa !136
  %52 = call i64 @rb_funcallv(i64 noundef %51, i64 noundef 136, i32 noundef 1, ptr noundef %12)
  br label %53

53:                                               ; preds = %41, %5
  call void @llvm.lifetime.end.p0(i64 8, ptr %13) #22
  call void @llvm.lifetime.end.p0(i64 8, ptr %12) #22
  call void @llvm.lifetime.end.p0(i64 8, ptr %11) #22
  ret i64 4
}