; Function Attrs: nounwind sspstrong uwtable
define internal noundef i64 @chunk_i(i64 noundef %0, i64 noundef %1, i32 %2, ptr readnone captures(none) %3, i64 %4) #0 {
  %6 = alloca i64, align 8
  call void @llvm.lifetime.start.p0(i64 8, ptr nonnull %6) #14
  %7 = tail call i64 @rb_ary_hidden_new_fill(i64 noundef 4) #14
  tail call void @rb_gc_writebarrier_unprotect(i64 noundef %7) #14
  %8 = inttoptr i64 %7 to ptr
  %9 = load i64, ptr %8, align 8, !tbaa !20
  %10 = and i64 %9, 8192
  %.not.i.i = icmp eq i64 %10, 0
  br i1 %.not.i.i, label %13, label %11

11:                                               ; preds = %5
  %12 = getelementptr inbounds nuw i8, ptr %8, i64 16
  br label %RARRAY_PTR.exit

13:                                               ; preds = %5
  %14 = getelementptr inbounds nuw i8, ptr %8, i64 32
  %15 = load ptr, ptr %14, align 8, !tbaa !22
  br label %RARRAY_PTR.exit

RARRAY_PTR.exit:                                  ; preds = %11, %13
  %.0.i.i = phi ptr [ %12, %11 ], [ %15, %13 ]
  %16 = load i64, ptr @id_chunk_enumerable, align 8, !tbaa !7
  %17 = tail call i64 @rb_ivar_get(i64 noundef %1, i64 noundef %16) #14
  %18 = load i64, ptr @id_chunk_categorize, align 8, !tbaa !7
  %19 = tail call i64 @rb_ivar_get(i64 noundef %1, i64 noundef %18) #14
  store i64 %19, ptr %.0.i.i, align 8, !tbaa !121
  %20 = getelementptr inbounds nuw i8, ptr %.0.i.i, i64 8
  store i64 4, ptr %20, align 8, !tbaa !123
  %21 = getelementptr inbounds nuw i8, ptr %.0.i.i, i64 16
  store i64 4, ptr %21, align 8, !tbaa !124
  %22 = getelementptr inbounds nuw i8, ptr %.0.i.i, i64 24
  store i64 %0, ptr %22, align 8, !tbaa !125
  %23 = tail call i64 @rb_block_call(i64 noundef %17, i64 noundef 3073, i32 noundef 0, ptr noundef null, ptr noundef nonnull @chunk_ii, i64 noundef %7) #14
  tail call void @rb_gc_writebarrier_unprotect(i64 noundef %7) #14
  %24 = load i64, ptr %8, align 8, !tbaa !20
  %25 = and i64 %24, 8192
  %.not.i.i11 = icmp eq i64 %25, 0
  br i1 %.not.i.i11, label %28, label %26

26:                                               ; preds = %RARRAY_PTR.exit
  %27 = getelementptr inbounds nuw i8, ptr %8, i64 16
  br label %RARRAY_PTR.exit13

28:                                               ; preds = %RARRAY_PTR.exit
  %29 = getelementptr inbounds nuw i8, ptr %8, i64 32
  %30 = load ptr, ptr %29, align 8, !tbaa !22
  br label %RARRAY_PTR.exit13

RARRAY_PTR.exit13:                                ; preds = %26, %28
  %.0.i.i12 = phi ptr [ %27, %26 ], [ %30, %28 ]
  %31 = getelementptr inbounds nuw i8, ptr %.0.i.i12, i64 16
  %32 = load i64, ptr %31, align 8, !tbaa !124
  %33 = icmp eq i64 %32, 4
  br i1 %33, label %41, label %34

34:                                               ; preds = %RARRAY_PTR.exit13
  %35 = getelementptr inbounds nuw i8, ptr %.0.i.i12, i64 8
  %36 = load i64, ptr %35, align 8, !tbaa !123
  %37 = tail call i64 @rb_assoc_new(i64 noundef %36, i64 noundef %32) #14
  store i64 %37, ptr %6, align 8, !tbaa !7
  %38 = getelementptr inbounds nuw i8, ptr %.0.i.i12, i64 24
  %39 = load i64, ptr %38, align 8, !tbaa !125
  %40 = call i64 @rb_funcallv(i64 noundef %39, i64 noundef 136, i32 noundef 1, ptr noundef nonnull %6) #14
  br label %41

41:                                               ; preds = %34, %RARRAY_PTR.exit13
  call void @llvm.lifetime.end.p0(i64 8, ptr nonnull %6) #14
  ret i64 4
}